; Function Attrs: nounwind uwtable
define dso_local noundef zeroext i1 @CheckForSerializableConflictOutNeeded(ptr noundef readonly captures(none) %0, ptr noundef readonly captures(none) %1) local_unnamed_addr #0 {
  %3 = load ptr, ptr @MySerializableXact, align 8
  %4 = icmp eq ptr %3, null
  br i1 %4, label %SerializationNeededForRead.exit.thread, label %5

5:                                                ; preds = %2
  %6 = load i32, ptr %1, align 8
  switch i32 %6, label %SerializationNeededForRead.exit.thread [
    i32 0, label %7
    i32 5, label %7
  ]

7:                                                ; preds = %5, %5
  %8 = getelementptr inbounds nuw i8, ptr %3, i64 156
  %9 = load i32, ptr %8, align 4
  %10 = and i32 %9, 128
  %.not.i = icmp eq i32 %10, 0
  br i1 %.not.i, label %12, label %11

11:                                               ; preds = %7
  tail call void @ReleasePredicateLocks(i1 noundef zeroext false, i1 noundef zeroext true)
  br label %SerializationNeededForRead.exit.thread

12:                                               ; preds = %7
  %13 = getelementptr inbounds nuw i8, ptr %0, i64 72
  %14 = load i32, ptr %13, align 8
  %15 = icmp ult i32 %14, 12000
  br i1 %15, label %SerializationNeededForRead.exit.thread, label %SerializationNeededForRead.exit

SerializationNeededForRead.exit:                  ; preds = %12
  %16 = getelementptr inbounds nuw i8, ptr %0, i64 56
  %17 = load ptr, ptr %16, align 8
  %18 = getelementptr inbounds nuw i8, ptr %17, i64 114
  %19 = load i8, ptr %18, align 2
  %.not5 = icmp eq i8 %19, 116
  br i1 %.not5, label %SerializationNeededForRead.exit.thread, label %20

20:                                               ; preds = %SerializationNeededForRead.exit
  %21 = and i32 %9, 8
  %.not = icmp eq i32 %21, 0
  br i1 %.not, label %SerializationNeededForRead.exit.thread, label %22

22:                                               ; preds = %20
  %23 = tail call zeroext i1 @errstart_cold(i32 noundef 21, ptr noundef null) #13
  tail call void @llvm.assume(i1 %23)
  %24 = tail call i32 @errcode(i32 noundef 16777220) #12
  %25 = tail call i32 (ptr, ...) @errmsg(ptr noundef nonnull @.str.12) #12
  %26 = tail call i32 (ptr, ...) @errdetail_internal(ptr noundef nonnull @.str.13) #12
  %27 = tail call i32 (ptr, ...) @errhint(ptr noundef nonnull @.str.14) #12
  tail call void @errfinish(ptr noundef nonnull @.str.10, i32 noundef 3993, ptr noundef nonnull @__func__.CheckForSerializableConflictOutNeeded) #12
  unreachable

SerializationNeededForRead.exit.thread:           ; preds = %12, %5, %2, %11, %20, %SerializationNeededForRead.exit
  %.0.i4 = phi i1 [ true, %20 ], [ false, %SerializationNeededForRead.exit ], [ false, %11 ], [ false, %2 ], [ false, %5 ], [ false, %12 ]
  ret i1 %.0.i4
}